target datalayout = "e-m:e-p270:32:32-p271:32:32-p272:64:64-i64:64-i128:128-f80:128-n8:16:32:64-S128"
target triple = "x86_64-pc-linux-gnu"

%struct.__va_list_tag = type { i32, i32, ptr, ptr }

; Function Attrs: nounwind uwtable
define i32 @CORD_sprintf(ptr noundef %0, ptr noundef %1, ...) #0 {
  %3 = alloca ptr, align 8
  %4 = alloca ptr, align 8
  %5 = alloca [1 x %struct.__va_list_tag], align 16
  %6 = alloca i32, align 4
  store ptr %0, ptr %3, align 8, !tbaa !3
  store ptr %1, ptr %4, align 8, !tbaa !8
  call void @llvm.lifetime.start.p0(i64 24, ptr %5) #9
  call void @llvm.lifetime.start.p0(i64 4, ptr %6) #9
  %7 = getelementptr inbounds [1 x %struct.__va_list_tag], ptr %5, i64 0, i64 0
  call void @llvm.va_start.p0(ptr %7)
  %8 = load ptr, ptr %3, align 8, !tbaa !3
  %9 = load ptr, ptr %4, align 8, !tbaa !8
  %10 = getelementptr inbounds [1 x %struct.__va_list_tag], ptr %5, i64 0, i64 0
  %11 = call i32 @CORD_vsprintf(ptr noundef %8, ptr noundef %9, ptr noundef %10)
  store i32 %11, ptr %6, align 4, !tbaa !24
  %12 = getelementptr inbounds [1 x %struct.__va_list_tag], ptr %5, i64 0, i64 0
  call void @llvm.va_end.p0(ptr %12)
  %13 = load i32, ptr %6, align 4, !tbaa !24
  call void @llvm.lifetime.end.p0(i64 4, ptr %6) #9
  call void @llvm.lifetime.end.p0(i64 24, ptr %5) #9
  ret i32 %13
}